target datalayout = "e-m:e-p270:32:32-p271:32:32-p272:64:64-i64:64-i128:128-f80:128-n8:16:32:64-S128"
target triple = "x86_64-pc-linux-gnu"

%struct._lv_bar_t = type { %struct._lv_obj_t, i32, i32, i32, i32, %struct.lv_area_t, i8, %struct._lv_bar_anim_t, %struct._lv_bar_anim_t, i8 }
%struct._lv_obj_t = type { ptr, ptr, ptr, ptr, ptr, %struct.lv_area_t, i32, i16, i16 }
%struct.lv_area_t = type { i32, i32, i32, i32 }
%struct._lv_bar_anim_t = type { ptr, i32, i32, i32 }
%struct._lv_anim_t = type { ptr, ptr, ptr, ptr, ptr, ptr, ptr, ptr, ptr, i32, i32, i32, i32, i32, i32, i32, i32, i32, %union._lv_anim_path_para_t, i32, i8 }
%union._lv_anim_path_para_t = type { %struct.lv_anim_bezier3_para_t }
%struct.lv_anim_bezier3_para_t = type { i16, i16, i16, i16 }

; Function Attrs: nounwind uwtable
define internal void @lv_bar_anim_completed(ptr noundef %0) #0 {
  %2 = alloca ptr, align 8
  %3 = alloca ptr, align 8
  %4 = alloca ptr, align 8
  %5 = alloca ptr, align 8
  store ptr %0, ptr %2, align 8, !tbaa !3
  call void @llvm.lifetime.start.p0(i64 8, ptr %3) #5
  %6 = load ptr, ptr %2, align 8, !tbaa !3
  %7 = getelementptr inbounds nuw %struct._lv_anim_t, ptr %6, i32 0, i32 0
  %8 = load ptr, ptr %7, align 8, !tbaa !65
  store ptr %8, ptr %3, align 8, !tbaa !3
  call void @llvm.lifetime.start.p0(i64 8, ptr %4) #5
  %9 = load ptr, ptr %3, align 8, !tbaa !3
  %10 = getelementptr inbounds nuw %struct._lv_bar_anim_t, ptr %9, i32 0, i32 0
  %11 = load ptr, ptr %10, align 8, !tbaa !33
  store ptr %11, ptr %4, align 8, !tbaa !3
  call void @llvm.lifetime.start.p0(i64 8, ptr %5) #5
  %12 = load ptr, ptr %4, align 8, !tbaa !3
  store ptr %12, ptr %5, align 8, !tbaa !3
  %13 = load ptr, ptr %3, align 8, !tbaa !3
  %14 = getelementptr inbounds nuw %struct._lv_bar_anim_t, ptr %13, i32 0, i32 3
  store i32 -1, ptr %14, align 8, !tbaa !24
  %15 = load ptr, ptr %3, align 8, !tbaa !3
  %16 = load ptr, ptr %5, align 8, !tbaa !3
  %17 = getelementptr inbounds nuw %struct._lv_bar_t, ptr %16, i32 0, i32 7
  %18 = icmp eq ptr %15, %17
  br i1 %18, label %19, label %25

19:                                               ; preds = %1
  %20 = load ptr, ptr %3, align 8, !tbaa !3
  %21 = getelementptr inbounds nuw %struct._lv_bar_anim_t, ptr %20, i32 0, i32 2
  %22 = load i32, ptr %21, align 4, !tbaa !26
  %23 = load ptr, ptr %5, align 8, !tbaa !3
  %24 = getelementptr inbounds nuw %struct._lv_bar_t, ptr %23, i32 0, i32 1
  store i32 %22, ptr %24, align 8, !tbaa !17
  br label %37

25:                                               ; preds = %1
  %26 = load ptr, ptr %3, align 8, !tbaa !3
  %27 = load ptr, ptr %5, align 8, !tbaa !3
  %28 = getelementptr inbounds nuw %struct._lv_bar_t, ptr %27, i32 0, i32 8
  %29 = icmp eq ptr %26, %28
  br i1 %29, label %30, label %36

30:                                               ; preds = %25
  %31 = load ptr, ptr %3, align 8, !tbaa !3
  %32 = getelementptr inbounds nuw %struct._lv_bar_anim_t, ptr %31, i32 0, i32 2
  %33 = load i32, ptr %32, align 4, !tbaa !26
  %34 = load ptr, ptr %5, align 8, !tbaa !3
  %35 = getelementptr inbounds nuw %struct._lv_bar_t, ptr %34, i32 0, i32 4
  store i32 %33, ptr %35, align 4, !tbaa !16
  br label %36

36:                                               ; preds = %30, %25
  br label %37

37:                                               ; preds = %36, %19
  %38 = load ptr, ptr %3, align 8, !tbaa !3
  %39 = getelementptr inbounds nuw %struct._lv_bar_anim_t, ptr %38, i32 0, i32 0
  %40 = load ptr, ptr %39, align 8, !tbaa !33
  call void @lv_obj_invalidate(ptr noundef %40)
  call void @llvm.lifetime.end.p0(i64 8, ptr %5) #5
  call void @llvm.lifetime.end.p0(i64 8, ptr %4) #5
  call void @llvm.lifetime.end.p0(i64 8, ptr %3) #5
  ret void
}