; Function Attrs: nounwind uwtable
define internal void @lv_bar_anim_completed(ptr nocapture noundef readonly %0) #0 {
  %2 = load ptr, ptr %0, align 8, !tbaa !65
  %3 = load ptr, ptr %2, align 8, !tbaa !17
  %4 = getelementptr inbounds nuw i8, ptr %2, i64 16
  store i32 -1, ptr %4, align 8, !tbaa !20
  %5 = getelementptr inbounds nuw i8, ptr %3, i64 104
  %6 = icmp eq ptr %2, %5
  br i1 %6, label %7, label %11

7:                                                ; preds = %1
  %8 = getelementptr inbounds nuw i8, ptr %2, i64 12
  %9 = load i32, ptr %8, align 4, !tbaa !19
  %10 = getelementptr inbounds nuw i8, ptr %3, i64 64
  store i32 %9, ptr %10, align 8, !tbaa !15
  br label %18

11:                                               ; preds = %1
  %12 = getelementptr inbounds nuw i8, ptr %3, i64 128
  %13 = icmp eq ptr %2, %12
  br i1 %13, label %14, label %18

14:                                               ; preds = %11
  %15 = getelementptr inbounds nuw i8, ptr %2, i64 12
  %16 = load i32, ptr %15, align 4, !tbaa !19
  %17 = getelementptr inbounds nuw i8, ptr %3, i64 76
  store i32 %16, ptr %17, align 4, !tbaa !21
  br label %18

18:                                               ; preds = %11, %14, %7
  tail call void @lv_obj_invalidate(ptr noundef %3) #7
  ret void
}